target datalayout = "e-m:e-p270:32:32-p271:32:32-p272:64:64-i64:64-i128:128-f80:128-n8:16:32:64-S128"
target triple = "x86_64-pc-linux-gnu"

%struct.dtMeshTile = type { i32, i32, ptr, ptr, ptr, ptr, ptr, ptr, ptr, ptr, ptr, ptr, i32, i32, ptr }

; Function Attrs: mustprogress uwtable
define void @_Z18duDebugDrawNavMeshP11duDebugDrawRK9dtNavMeshh(ptr noundef %0, ptr noundef nonnull align 8 dereferenceable(100) %1, i8 noundef zeroext %2) #0 {
  %4 = alloca ptr, align 8
  %5 = alloca ptr, align 8
  %6 = alloca i8, align 1
  %7 = alloca i32, align 4
  %8 = alloca ptr, align 8
  store ptr %0, ptr %4, align 8
  store ptr %1, ptr %5, align 8
  store i8 %2, ptr %6, align 1
  %9 = load ptr, ptr %4, align 8
  %10 = icmp ne ptr %9, null
  br i1 %10, label %12, label %11

11:                                               ; preds = %3
  br label %35

12:                                               ; preds = %3
  store i32 0, ptr %7, align 4
  br label %13

13:                                               ; preds = %32, %12
  %14 = load i32, ptr %7, align 4
  %15 = load ptr, ptr %5, align 8
  %16 = call noundef i32 @_ZNK9dtNavMesh11getMaxTilesEv(ptr noundef nonnull align 8 dereferenceable(100) %15)
  %17 = icmp slt i32 %14, %16
  br i1 %17, label %18, label %35

18:                                               ; preds = %13
  %19 = load ptr, ptr %5, align 8
  %20 = load i32, ptr %7, align 4
  %21 = call noundef ptr @_ZNK9dtNavMesh7getTileEi(ptr noundef nonnull align 8 dereferenceable(100) %19, i32 noundef %20)
  store ptr %21, ptr %8, align 8
  %22 = load ptr, ptr %8, align 8
  %23 = getelementptr inbounds %struct.dtMeshTile, ptr %22, i32 0, i32 2
  %24 = load ptr, ptr %23, align 8
  %25 = icmp ne ptr %24, null
  br i1 %25, label %27, label %26

26:                                               ; preds = %18
  br label %32

27:                                               ; preds = %18
  %28 = load ptr, ptr %4, align 8
  %29 = load ptr, ptr %5, align 8
  %30 = load ptr, ptr %8, align 8
  %31 = load i8, ptr %6, align 1
  call void @_ZL12drawMeshTileP11duDebugDrawRK9dtNavMeshPK14dtNavMeshQueryPK10dtMeshTileh(ptr noundef %28, ptr noundef nonnull align 8 dereferenceable(100) %29, ptr noundef null, ptr noundef %30, i8 noundef zeroext %31)
  br label %32

32:                                               ; preds = %27, %26
  %33 = load i32, ptr %7, align 4
  %34 = add nsw i32 %33, 1
  store i32 %34, ptr %7, align 4
  br label %13, !llvm.loop !4

35:                                               ; preds = %13, %11
  ret void
}