; Function Attrs: mustprogress uwtable
define void @_Z18duDebugDrawNavMeshP11duDebugDrawRK9dtNavMeshh(ptr noundef %0, ptr noundef nonnull align 8 dereferenceable(100) %1, i8 noundef zeroext %2) local_unnamed_addr #0 {
  %.not = icmp eq ptr %0, null
  br i1 %.not, label %.loopexit, label %.preheader

.preheader:                                       ; preds = %3
  %4 = tail call noundef i32 @_ZNK9dtNavMesh11getMaxTilesEv(ptr noundef nonnull align 8 dereferenceable(100) %1)
  %5 = icmp sgt i32 %4, 0
  br i1 %5, label %.lr.ph, label %.loopexit

.lr.ph:                                           ; preds = %.preheader, %10
  %.012 = phi i32 [ %11, %10 ], [ 0, %.preheader ]
  %6 = tail call noundef ptr @_ZNK9dtNavMesh7getTileEi(ptr noundef nonnull align 8 dereferenceable(100) %1, i32 noundef %.012)
  %7 = getelementptr inbounds nuw i8, ptr %6, i64 8
  %8 = load ptr, ptr %7, align 8
  %.not11 = icmp eq ptr %8, null
  br i1 %.not11, label %10, label %9

9:                                                ; preds = %.lr.ph
  tail call fastcc void @_ZL12drawMeshTileP11duDebugDrawRK9dtNavMeshPK14dtNavMeshQueryPK10dtMeshTileh(ptr noundef %0, ptr noundef nonnull align 8 dereferenceable(100) %1, ptr noundef null, ptr noundef nonnull %6, i8 noundef zeroext %2)
  br label %10

10:                                               ; preds = %.lr.ph, %9
  %11 = add nuw nsw i32 %.012, 1
  %12 = tail call noundef i32 @_ZNK9dtNavMesh11getMaxTilesEv(ptr noundef nonnull align 8 dereferenceable(100) %1)
  %13 = icmp slt i32 %11, %12
  br i1 %13, label %.lr.ph, label %.loopexit, !llvm.loop !4

.loopexit:                                        ; preds = %10, %.preheader, %3
  ret void
}